target datalayout = "e-m:e-p270:32:32-p271:32:32-p272:64:64-i64:64-i128:128-f80:128-n8:16:32:64-S128"
target triple = "x86_64-pc-linux-gnu"

%struct.H5S_t = type { %struct.H5S_extent_t, %struct.H5S_select_t }
%struct.H5S_extent_t = type { %struct.H5O_shared_t, i32, i32, i64, i32, ptr, ptr }
%struct.H5O_shared_t = type { i32, ptr, i32, %union.anon }
%union.anon = type { %struct.H5O_mesg_loc_t }
%struct.H5O_mesg_loc_t = type { i32, i64 }
%struct.H5S_select_t = type { ptr, i8, [32 x i64], i64, %union.anon.0 }
%union.anon.0 = type { ptr }
%struct.H5S_pnt_list_t = type { [32 x i64], [32 x i64], ptr, ptr, i64, ptr }
%struct.H5S_pnt_node_t = type { ptr, [0 x i64] }

@H5S_init_g = external global i8, align 1
@H5_libterm_g = external global i8, align 1

; Function Attrs: nounwind uwtable
define internal i32 @H5S__point_shape_same(ptr noundef %0, ptr noundef %1) #0 {
  %3 = alloca ptr, align 8
  %4 = alloca ptr, align 8
  %5 = alloca ptr, align 8
  %6 = alloca ptr, align 8
  %7 = alloca [32 x i64], align 16
  %8 = alloca i32, align 4
  %9 = alloca i32, align 4
  %10 = alloca i32, align 4
  %11 = alloca i32, align 4
  %12 = alloca i32, align 4
  store ptr %0, ptr %3, align 8, !tbaa !3
  store ptr %1, ptr %4, align 8, !tbaa !3
  call void @llvm.lifetime.start.p0(i64 8, ptr %5) #7
  call void @llvm.lifetime.start.p0(i64 8, ptr %6) #7
  call void @llvm.lifetime.start.p0(i64 256, ptr %7) #7
  call void @llvm.lifetime.start.p0(i64 4, ptr %8) #7
  call void @llvm.lifetime.start.p0(i64 4, ptr %9) #7
  call void @llvm.lifetime.start.p0(i64 4, ptr %10) #7
  call void @llvm.lifetime.start.p0(i64 4, ptr %11) #7
  call void @llvm.lifetime.start.p0(i64 4, ptr %12) #7
  store i32 1, ptr %12, align 4, !tbaa !10
  %13 = load i8, ptr @H5S_init_g, align 1, !tbaa !8, !range !12, !noundef !13
  %14 = trunc i8 %13 to i1
  br i1 %14, label %19, label %15

15:                                               ; preds = %2
  %16 = load i8, ptr @H5_libterm_g, align 1, !tbaa !8, !range !12, !noundef !13
  %17 = trunc i8 %16 to i1
  %18 = xor i1 %17, true
  br label %19

19:                                               ; preds = %15, %2
  %20 = phi i1 [ true, %2 ], [ %18, %15 ]
  %21 = xor i1 %20, true
  %22 = xor i1 %21, true
  %23 = zext i1 %22 to i32
  %24 = sext i32 %23 to i64
  %25 = call i64 @llvm.expect.i64(i64 %24, i64 1)
  %26 = icmp ne i64 %25, 0
  br i1 %26, label %27, label %175

27:                                               ; preds = %19
  %28 = load ptr, ptr %3, align 8, !tbaa !3
  %29 = getelementptr inbounds nuw %struct.H5S_t, ptr %28, i32 0, i32 0
  %30 = getelementptr inbounds nuw %struct.H5S_extent_t, ptr %29, i32 0, i32 4
  %31 = load i32, ptr %30, align 8, !tbaa !15
  store i32 %31, ptr %8, align 4, !tbaa !10
  %32 = load ptr, ptr %4, align 8, !tbaa !3
  %33 = getelementptr inbounds nuw %struct.H5S_t, ptr %32, i32 0, i32 0
  %34 = getelementptr inbounds nuw %struct.H5S_extent_t, ptr %33, i32 0, i32 4
  %35 = load i32, ptr %34, align 8, !tbaa !15
  store i32 %35, ptr %9, align 4, !tbaa !10
  %36 = load i32, ptr %8, align 4, !tbaa !10
  %37 = sub nsw i32 %36, 1
  store i32 %37, ptr %10, align 4, !tbaa !10
  %38 = load i32, ptr %9, align 4, !tbaa !10
  %39 = sub nsw i32 %38, 1
  store i32 %39, ptr %11, align 4, !tbaa !10
  %40 = load ptr, ptr %3, align 8, !tbaa !3
  %41 = getelementptr inbounds nuw %struct.H5S_t, ptr %40, i32 0, i32 1
  %42 = getelementptr inbounds nuw %struct.H5S_select_t, ptr %41, i32 0, i32 4
  %43 = load ptr, ptr %42, align 8, !tbaa !14
  %44 = getelementptr inbounds nuw %struct.H5S_pnt_list_t, ptr %43, i32 0, i32 2
  %45 = load ptr, ptr %44, align 8, !tbaa !35
  store ptr %45, ptr %5, align 8, !tbaa !38
  %46 = load ptr, ptr %4, align 8, !tbaa !3
  %47 = getelementptr inbounds nuw %struct.H5S_t, ptr %46, i32 0, i32 1
  %48 = getelementptr inbounds nuw %struct.H5S_select_t, ptr %47, i32 0, i32 4
  %49 = load ptr, ptr %48, align 8, !tbaa !14
  %50 = getelementptr inbounds nuw %struct.H5S_pnt_list_t, ptr %49, i32 0, i32 2
  %51 = load ptr, ptr %50, align 8, !tbaa !35
  store ptr %51, ptr %6, align 8, !tbaa !38
  br label %52

52:                                               ; preds = %55, %27
  %53 = load i32, ptr %11, align 4, !tbaa !10
  %54 = icmp sge i32 %53, 0
  br i1 %54, label %55, label %76

55:                                               ; preds = %52
  %56 = load ptr, ptr %6, align 8, !tbaa !38
  %57 = getelementptr inbounds nuw %struct.H5S_pnt_node_t, ptr %56, i32 0, i32 1
  %58 = load i32, ptr %11, align 4, !tbaa !10
  %59 = sext i32 %58 to i64
  %60 = getelementptr inbounds [0 x i64], ptr %57, i64 0, i64 %59
  %61 = load i64, ptr %60, align 8, !tbaa !23
  %62 = load ptr, ptr %5, align 8, !tbaa !38
  %63 = getelementptr inbounds nuw %struct.H5S_pnt_node_t, ptr %62, i32 0, i32 1
  %64 = load i32, ptr %10, align 4, !tbaa !10
  %65 = sext i32 %64 to i64
  %66 = getelementptr inbounds [0 x i64], ptr %63, i64 0, i64 %65
  %67 = load i64, ptr %66, align 8, !tbaa !23
  %68 = sub nsw i64 %61, %67
  %69 = load i32, ptr %10, align 4, !tbaa !10
  %70 = sext i32 %69 to i64
  %71 = getelementptr inbounds [32 x i64], ptr %7, i64 0, i64 %70
  store i64 %68, ptr %71, align 8, !tbaa !23
  %72 = load i32, ptr %10, align 4, !tbaa !10
  %73 = add nsw i32 %72, -1
  store i32 %73, ptr %10, align 4, !tbaa !10
  %74 = load i32, ptr %11, align 4, !tbaa !10
  %75 = add nsw i32 %74, -1
  store i32 %75, ptr %11, align 4, !tbaa !10
  br label %52, !llvm.loop !58

76:                                               ; preds = %52
  br label %77

77:                                               ; preds = %80, %76
  %78 = load i32, ptr %10, align 4, !tbaa !10
  %79 = icmp sge i32 %78, 0
  br i1 %79, label %80, label %92

80:                                               ; preds = %77
  %81 = load ptr, ptr %5, align 8, !tbaa !38
  %82 = getelementptr inbounds nuw %struct.H5S_pnt_node_t, ptr %81, i32 0, i32 1
  %83 = load i32, ptr %10, align 4, !tbaa !10
  %84 = sext i32 %83 to i64
  %85 = getelementptr inbounds [0 x i64], ptr %82, i64 0, i64 %84
  %86 = load i64, ptr %85, align 8, !tbaa !23
  %87 = load i32, ptr %10, align 4, !tbaa !10
  %88 = sext i32 %87 to i64
  %89 = getelementptr inbounds [32 x i64], ptr %7, i64 0, i64 %88
  store i64 %86, ptr %89, align 8, !tbaa !23
  %90 = load i32, ptr %10, align 4, !tbaa !10
  %91 = add nsw i32 %90, -1
  store i32 %91, ptr %10, align 4, !tbaa !10
  br label %77, !llvm.loop !59

92:                                               ; preds = %77
  %93 = load ptr, ptr %5, align 8, !tbaa !38
  %94 = getelementptr inbounds nuw %struct.H5S_pnt_node_t, ptr %93, i32 0, i32 0
  %95 = load ptr, ptr %94, align 8, !tbaa !38
  store ptr %95, ptr %5, align 8, !tbaa !38
  %96 = load ptr, ptr %6, align 8, !tbaa !38
  %97 = getelementptr inbounds nuw %struct.H5S_pnt_node_t, ptr %96, i32 0, i32 0
  %98 = load ptr, ptr %97, align 8, !tbaa !38
  store ptr %98, ptr %6, align 8, !tbaa !38
  br label %99

99:                                               ; preds = %166, %92
  %100 = load ptr, ptr %5, align 8, !tbaa !38
  %101 = icmp ne ptr %100, null
  br i1 %101, label %102, label %105

102:                                              ; preds = %99
  %103 = load ptr, ptr %6, align 8, !tbaa !38
  %104 = icmp ne ptr %103, null
  br label %105

105:                                              ; preds = %102, %99
  %106 = phi i1 [ false, %99 ], [ %104, %102 ]
  br i1 %106, label %107, label %173

107:                                              ; preds = %105
  %108 = load i32, ptr %8, align 4, !tbaa !10
  %109 = sub nsw i32 %108, 1
  store i32 %109, ptr %10, align 4, !tbaa !10
  %110 = load i32, ptr %9, align 4, !tbaa !10
  %111 = sub nsw i32 %110, 1
  store i32 %111, ptr %11, align 4, !tbaa !10
  br label %112

112:                                              ; preds = %138, %107
  %113 = load i32, ptr %11, align 4, !tbaa !10
  %114 = icmp sge i32 %113, 0
  br i1 %114, label %115, label %143

115:                                              ; preds = %112
  %116 = load ptr, ptr %5, align 8, !tbaa !38
  %117 = getelementptr inbounds nuw %struct.H5S_pnt_node_t, ptr %116, i32 0, i32 1
  %118 = load i32, ptr %10, align 4, !tbaa !10
  %119 = sext i32 %118 to i64
  %120 = getelementptr inbounds [0 x i64], ptr %117, i64 0, i64 %119
  %121 = load i64, ptr %120, align 8, !tbaa !23
  %122 = load i32, ptr %10, align 4, !tbaa !10
  %123 = sext i32 %122 to i64
  %124 = getelementptr inbounds [32 x i64], ptr %7, i64 0, i64 %123
  %125 = load i64, ptr %124, align 8, !tbaa !23
  %126 = add nsw i64 %121, %125
  %127 = load ptr, ptr %6, align 8, !tbaa !38
  %128 = getelementptr inbounds nuw %struct.H5S_pnt_node_t, ptr %127, i32 0, i32 1
  %129 = load i32, ptr %11, align 4, !tbaa !10
  %130 = sext i32 %129 to i64
  %131 = getelementptr inbounds [0 x i64], ptr %128, i64 0, i64 %130
  %132 = load i64, ptr %131, align 8, !tbaa !23
  %133 = icmp ne i64 %126, %132
  br i1 %133, label %134, label %138

134:                                              ; preds = %115
  br label %135

135:                                              ; preds = %134
  store i32 0, ptr %12, align 4, !tbaa !10
  br label %174

136:                                              ; No predecessors!
  br label %137

137:                                              ; preds = %136
  br label %138

138:                                              ; preds = %137, %115
  %139 = load i32, ptr %10, align 4, !tbaa !10
  %140 = add nsw i32 %139, -1
  store i32 %140, ptr %10, align 4, !tbaa !10
  %141 = load i32, ptr %11, align 4, !tbaa !10
  %142 = add nsw i32 %141, -1
  store i32 %142, ptr %11, align 4, !tbaa !10
  br label %112, !llvm.loop !60

143:                                              ; preds = %112
  br label %144

144:                                              ; preds = %163, %143
  %145 = load i32, ptr %10, align 4, !tbaa !10
  %146 = icmp sge i32 %145, 0
  br i1 %146, label %147, label %166

147:                                              ; preds = %144
  %148 = load ptr, ptr %5, align 8, !tbaa !38
  %149 = getelementptr inbounds nuw %struct.H5S_pnt_node_t, ptr %148, i32 0, i32 1
  %150 = load i32, ptr %10, align 4, !tbaa !10
  %151 = sext i32 %150 to i64
  %152 = getelementptr inbounds [0 x i64], ptr %149, i64 0, i64 %151
  %153 = load i64, ptr %152, align 8, !tbaa !23
  %154 = load i32, ptr %10, align 4, !tbaa !10
  %155 = sext i32 %154 to i64
  %156 = getelementptr inbounds [32 x i64], ptr %7, i64 0, i64 %155
  %157 = load i64, ptr %156, align 8, !tbaa !23
  %158 = icmp ne i64 %153, %157
  br i1 %158, label %159, label %163

159:                                              ; preds = %147
  br label %160

160:                                              ; preds = %159
  store i32 0, ptr %12, align 4, !tbaa !10
  br label %174

161:                                              ; No predecessors!
  br label %162

162:                                              ; preds = %161
  br label %163

163:                                              ; preds = %162, %147
  %164 = load i32, ptr %10, align 4, !tbaa !10
  %165 = add nsw i32 %164, -1
  store i32 %165, ptr %10, align 4, !tbaa !10
  br label %144, !llvm.loop !61

166:                                              ; preds = %144
  %167 = load ptr, ptr %5, align 8, !tbaa !38
  %168 = getelementptr inbounds nuw %struct.H5S_pnt_node_t, ptr %167, i32 0, i32 0
  %169 = load ptr, ptr %168, align 8, !tbaa !38
  store ptr %169, ptr %5, align 8, !tbaa !38
  %170 = load ptr, ptr %6, align 8, !tbaa !38
  %171 = getelementptr inbounds nuw %struct.H5S_pnt_node_t, ptr %170, i32 0, i32 0
  %172 = load ptr, ptr %171, align 8, !tbaa !38
  store ptr %172, ptr %6, align 8, !tbaa !38
  br label %99, !llvm.loop !62

173:                                              ; preds = %105
  br label %174

174:                                              ; preds = %173, %160, %135
  br label %175

175:                                              ; preds = %174, %19
  %176 = load i32, ptr %12, align 4, !tbaa !10
  call void @llvm.lifetime.end.p0(i64 4, ptr %12) #7
  call void @llvm.lifetime.end.p0(i64 4, ptr %11) #7
  call void @llvm.lifetime.end.p0(i64 4, ptr %10) #7
  call void @llvm.lifetime.end.p0(i64 4, ptr %9) #7
  call void @llvm.lifetime.end.p0(i64 4, ptr %8) #7
  call void @llvm.lifetime.end.p0(i64 256, ptr %7) #7
  call void @llvm.lifetime.end.p0(i64 8, ptr %6) #7
  call void @llvm.lifetime.end.p0(i64 8, ptr %5) #7
  ret i32 %176
}