; Function Attrs: nofree norecurse nosync nounwind memory(readwrite, inaccessiblemem: none) uwtable
define internal range(i32 0, 2) i32 @H5S__point_shape_same(ptr noundef readonly captures(none) %0, ptr noundef readonly captures(none) %1) #4 {
  %3 = alloca [32 x i64], align 16
  call void @llvm.lifetime.start.p0(i64 256, ptr nonnull %3) #15
  %4 = load i8, ptr @H5S_init_g, align 1, !tbaa !3, !range !7, !noundef !8
  %5 = trunc nuw i8 %4 to i1
  %6 = load i8, ptr @H5_libterm_g, align 1, !range !7
  %7 = trunc nuw i8 %6 to i1
  %8 = xor i1 %7, true
  %9 = select i1 %5, i1 true, i1 %8
  br i1 %9, label %10, label %.loopexit46, !prof !9

10:                                               ; preds = %2
  %11 = getelementptr inbounds nuw i8, ptr %0, i64 56
  %12 = load i32, ptr %11, align 8, !tbaa !11
  %13 = getelementptr inbounds nuw i8, ptr %1, i64 56
  %14 = load i32, ptr %13, align 8, !tbaa !11
  %15 = add i32 %12, -1
  %16 = add i32 %14, -1
  %17 = getelementptr inbounds nuw i8, ptr %0, i64 360
  %18 = load ptr, ptr %17, align 8, !tbaa !10
  %19 = getelementptr inbounds nuw i8, ptr %18, i64 512
  %20 = load ptr, ptr %19, align 8, !tbaa !22
  %21 = getelementptr inbounds nuw i8, ptr %1, i64 360
  %22 = load ptr, ptr %21, align 8, !tbaa !10
  %23 = getelementptr inbounds nuw i8, ptr %22, i64 512
  %24 = load ptr, ptr %23, align 8, !tbaa !22
  %25 = icmp sgt i32 %14, 0
  br i1 %25, label %.lr.ph, label %.preheader51

.lr.ph:                                           ; preds = %10
  %26 = getelementptr inbounds nuw i8, ptr %24, i64 8
  %27 = getelementptr inbounds nuw i8, ptr %20, i64 8
  %28 = zext nneg i32 %16 to i64
  %29 = sext i32 %15 to i64
  br label %36

.preheader51.loopexit:                            ; preds = %36
  %30 = trunc nsw i64 %indvars.iv.next85 to i32
  br label %.preheader51

.preheader51:                                     ; preds = %.preheader51.loopexit, %10
  %.041.lcssa = phi i32 [ %15, %10 ], [ %30, %.preheader51.loopexit ]
  %31 = icmp sgt i32 %.041.lcssa, -1
  br i1 %31, label %.lr.ph56, label %.preheader49

.lr.ph56:                                         ; preds = %.preheader51
  %32 = getelementptr inbounds nuw i8, ptr %20, i64 8
  %33 = add nuw i32 %.041.lcssa, 1
  %34 = zext i32 %33 to i64
  %35 = shl nuw nsw i64 %34, 3
  call void @llvm.memcpy.p0.p0.i64(ptr noundef nonnull align 16 dereferenceable(1) %3, ptr noundef nonnull align 8 dereferenceable(1) %32, i64 %35, i1 false), !tbaa !21
  br label %.preheader49

36:                                               ; preds = %.lr.ph, %36
  %indvars.iv84 = phi i64 [ %29, %.lr.ph ], [ %indvars.iv.next85, %36 ]
  %indvars.iv = phi i64 [ %28, %.lr.ph ], [ %indvars.iv.next, %36 ]
  %37 = getelementptr inbounds nuw [0 x i64], ptr %26, i64 0, i64 %indvars.iv
  %38 = load i64, ptr %37, align 8, !tbaa !21
  %39 = getelementptr inbounds [0 x i64], ptr %27, i64 0, i64 %indvars.iv84
  %40 = load i64, ptr %39, align 8, !tbaa !21
  %41 = sub nsw i64 %38, %40
  %42 = getelementptr inbounds [32 x i64], ptr %3, i64 0, i64 %indvars.iv84
  store i64 %41, ptr %42, align 8, !tbaa !21
  %indvars.iv.next85 = add nsw i64 %indvars.iv84, -1
  %indvars.iv.next = add nsw i64 %indvars.iv, -1
  %.not = icmp eq i64 %indvars.iv, 0
  br i1 %.not, label %.preheader51.loopexit, label %36, !llvm.loop !53

.preheader49:                                     ; preds = %.lr.ph56, %.preheader51
  %.04363 = load ptr, ptr %20, align 8, !tbaa !25
  %.04464 = load ptr, ptr %24, align 8, !tbaa !25
  %43 = icmp ne ptr %.04363, null
  %44 = icmp ne ptr %.04464, null
  %45 = select i1 %43, i1 %44, i1 false
  br i1 %45, label %.preheader47.lr.ph, label %.loopexit46

.preheader47.lr.ph:                               ; preds = %.preheader49
  br i1 %25, label %.preheader47.us.preheader, label %.preheader47.lr.ph.split

.preheader47.us.preheader:                        ; preds = %.preheader47.lr.ph
  %46 = sext i32 %15 to i64
  %47 = sub i32 %15, %14
  %48 = sub i32 %12, %14
  %49 = icmp sgt i32 %48, 0
  br label %.preheader47.us

.preheader47.us:                                  ; preds = %.preheader47.us.preheader, %.loopexit.us
  %.04466.us = phi ptr [ %.044.us, %.loopexit.us ], [ %.04464, %.preheader47.us.preheader ]
  %.04365.us = phi ptr [ %.043.us, %.loopexit.us ], [ %.04363, %.preheader47.us.preheader ]
  %50 = getelementptr inbounds nuw i8, ptr %.04365.us, i64 8
  %51 = getelementptr inbounds nuw i8, ptr %.04466.us, i64 8
  br label %60

52:                                               ; preds = %.lr.ph62.us
  %53 = add nsw i32 %.361.us, -1
  %54 = icmp sgt i32 %.361.us, 0
  br i1 %54, label %.lr.ph62.us, label %.loopexit.us, !llvm.loop !54

.lr.ph62.us:                                      ; preds = %..preheader_crit_edge.us, %52
  %.361.us = phi i32 [ %53, %52 ], [ %47, %..preheader_crit_edge.us ]
  %55 = zext nneg i32 %.361.us to i64
  %56 = getelementptr inbounds nuw [0 x i64], ptr %50, i64 0, i64 %55
  %57 = load i64, ptr %56, align 8, !tbaa !21
  %58 = getelementptr inbounds nuw [32 x i64], ptr %3, i64 0, i64 %55
  %59 = load i64, ptr %58, align 8, !tbaa !21
  %.not.us = icmp eq i64 %57, %59
  br i1 %.not.us, label %52, label %.loopexit46

60:                                               ; preds = %.preheader47.us, %69
  %indvars.iv92 = phi i64 [ %46, %.preheader47.us ], [ %indvars.iv.next93, %69 ]
  %.158.us = phi i32 [ %16, %.preheader47.us ], [ %70, %69 ]
  %61 = getelementptr inbounds [0 x i64], ptr %50, i64 0, i64 %indvars.iv92
  %62 = load i64, ptr %61, align 8, !tbaa !21
  %63 = getelementptr inbounds [32 x i64], ptr %3, i64 0, i64 %indvars.iv92
  %64 = load i64, ptr %63, align 8, !tbaa !21
  %65 = add nsw i64 %64, %62
  %66 = zext nneg i32 %.158.us to i64
  %67 = getelementptr inbounds nuw [0 x i64], ptr %51, i64 0, i64 %66
  %68 = load i64, ptr %67, align 8, !tbaa !21
  %.not45.us = icmp eq i64 %65, %68
  br i1 %.not45.us, label %69, label %.loopexit46

69:                                               ; preds = %60
  %indvars.iv.next93 = add nsw i64 %indvars.iv92, -1
  %70 = add nsw i32 %.158.us, -1
  %71 = icmp sgt i32 %.158.us, 0
  br i1 %71, label %60, label %..preheader_crit_edge.us, !llvm.loop !55

.loopexit.us:                                     ; preds = %52, %..preheader_crit_edge.us
  %.043.us = load ptr, ptr %.04365.us, align 8, !tbaa !25
  %.044.us = load ptr, ptr %.04466.us, align 8, !tbaa !25
  %72 = icmp ne ptr %.043.us, null
  %73 = icmp ne ptr %.044.us, null
  %74 = select i1 %72, i1 %73, i1 false
  br i1 %74, label %.preheader47.us, label %.loopexit46, !llvm.loop !56

..preheader_crit_edge.us:                         ; preds = %69
  br i1 %49, label %.lr.ph62.us, label %.loopexit.us

.preheader47.lr.ph.split:                         ; preds = %.preheader47.lr.ph
  %75 = icmp sgt i32 %12, 0
  br i1 %75, label %.preheader47.us67, label %.loopexit46

.preheader47.us67:                                ; preds = %.preheader47.lr.ph.split, %..loopexit_crit_edge.us76
  %.04466.us68 = phi ptr [ %.044.us74, %..loopexit_crit_edge.us76 ], [ %.04464, %.preheader47.lr.ph.split ]
  %.04365.us69 = phi ptr [ %.043.us73, %..loopexit_crit_edge.us76 ], [ %.04363, %.preheader47.lr.ph.split ]
  %76 = getelementptr inbounds nuw i8, ptr %.04365.us69, i64 8
  br label %80

77:                                               ; preds = %80
  %78 = add nsw i32 %.361.us70, -1
  %79 = icmp sgt i32 %.361.us70, 0
  br i1 %79, label %80, label %..loopexit_crit_edge.us76, !llvm.loop !54

80:                                               ; preds = %.preheader47.us67, %77
  %.361.us70 = phi i32 [ %15, %.preheader47.us67 ], [ %78, %77 ]
  %81 = zext nneg i32 %.361.us70 to i64
  %82 = getelementptr inbounds nuw [0 x i64], ptr %76, i64 0, i64 %81
  %83 = load i64, ptr %82, align 8, !tbaa !21
  %84 = getelementptr inbounds nuw [32 x i64], ptr %3, i64 0, i64 %81
  %85 = load i64, ptr %84, align 8, !tbaa !21
  %.not.us71 = icmp eq i64 %83, %85
  br i1 %.not.us71, label %77, label %.loopexit46

..loopexit_crit_edge.us76:                        ; preds = %77
  %.043.us73 = load ptr, ptr %.04365.us69, align 8, !tbaa !25
  %.044.us74 = load ptr, ptr %.04466.us68, align 8, !tbaa !25
  %86 = icmp ne ptr %.043.us73, null
  %87 = icmp ne ptr %.044.us74, null
  %88 = select i1 %86, i1 %87, i1 false
  br i1 %88, label %.preheader47.us67, label %.loopexit46, !llvm.loop !56

.loopexit46:                                      ; preds = %..loopexit_crit_edge.us76, %80, %.loopexit.us, %60, %.lr.ph62.us, %.preheader47.lr.ph.split, %.preheader49, %2
  %.0 = phi i32 [ 1, %2 ], [ 1, %.preheader49 ], [ 1, %.preheader47.lr.ph.split ], [ 0, %.lr.ph62.us ], [ 0, %60 ], [ 1, %.loopexit.us ], [ 0, %80 ], [ 1, %..loopexit_crit_edge.us76 ]
  call void @llvm.lifetime.end.p0(i64 256, ptr nonnull %3) #15
  ret i32 %.0
}